; Function Attrs: mustprogress uwtable
define hidden void @_ZNK12old_interval7displayERSo(ptr noundef nonnull align 8 dereferenceable(112) %0, ptr noundef nonnull align 8 dereferenceable(8) %1) local_unnamed_addr #3 align 2 {
  %3 = getelementptr inbounds nuw i8, ptr %0, i64 88
  %4 = load i8, ptr %3, align 8, !tbaa !32, !range !39, !noundef !40
  %5 = trunc nuw i8 %4 to i1
  %.str.4..str.5 = select i1 %5, ptr @.str.4, ptr @.str.5
  %6 = tail call noundef nonnull align 8 dereferenceable(8) ptr @_ZSt16__ostream_insertIcSt11char_traitsIcEERSt13basic_ostreamIT_T0_ES6_PKS3_l(ptr noundef nonnull align 8 dereferenceable(8) %1, ptr noundef nonnull %.str.4..str.5, i64 noundef 1)
  %7 = getelementptr inbounds nuw i8, ptr %0, i64 8
  tail call void @_ZNK11ext_numeral7displayERSo(ptr noundef nonnull align 8 dereferenceable(40) %7, ptr noundef nonnull align 8 dereferenceable(8) %1)
  %8 = tail call noundef nonnull align 8 dereferenceable(8) ptr @_ZSt16__ostream_insertIcSt11char_traitsIcEERSt13basic_ostreamIT_T0_ES6_PKS3_l(ptr noundef nonnull align 8 dereferenceable(8) %1, ptr noundef nonnull @.str.6, i64 noundef 2)
  %9 = getelementptr inbounds nuw i8, ptr %0, i64 48
  tail call void @_ZNK11ext_numeral7displayERSo(ptr noundef nonnull align 8 dereferenceable(40) %9, ptr noundef nonnull align 8 dereferenceable(8) %1)
  %10 = getelementptr inbounds nuw i8, ptr %0, i64 89
  %11 = load i8, ptr %10, align 1, !tbaa !36, !range !39, !noundef !40
  %12 = trunc nuw i8 %11 to i1
  %13 = select i1 %12, ptr @.str.7, ptr @.str.8
  %14 = tail call noundef nonnull align 8 dereferenceable(8) ptr @_ZSt16__ostream_insertIcSt11char_traitsIcEERSt13basic_ostreamIT_T0_ES6_PKS3_l(ptr noundef nonnull align 8 dereferenceable(8) %1, ptr noundef nonnull %13, i64 noundef 1)
  ret void
}